target datalayout = "e-m:e-p270:32:32-p271:32:32-p272:64:64-i64:64-i128:128-f80:128-n8:16:32:64-S128"
target triple = "x86_64-pc-linux-gnu"

%struct.avifEncoderItemIdArray = type { ptr, i32, i32, i32 }

@.str.69 = private unnamed_addr constant [5 x i8] c"grpl\00", align 1
@.str.70 = private unnamed_addr constant [5 x i8] c"altr\00", align 1

; Function Attrs: nounwind uwtable
define internal i32 @avifWriteAltrGroup(ptr noundef %0, ptr noundef %1) #0 {
  %3 = alloca i32, align 4
  %4 = alloca ptr, align 8
  %5 = alloca ptr, align 8
  %6 = alloca i64, align 8
  %7 = alloca i32, align 4
  %8 = alloca i64, align 8
  %9 = alloca i32, align 4
  %10 = alloca i32, align 4
  %11 = alloca i32, align 4
  %12 = alloca i32, align 4
  %13 = alloca i32, align 4
  store ptr %0, ptr %4, align 8
  store ptr %1, ptr %5, align 8
  br label %14

14:                                               ; preds = %2
  %15 = load ptr, ptr %4, align 8
  %16 = call i32 @avifRWStreamWriteBox(ptr noundef %15, ptr noundef @.str.69, i64 noundef 0, ptr noundef %6)
  store i32 %16, ptr %7, align 4
  %17 = load i32, ptr %7, align 4
  %18 = icmp ne i32 %17, 0
  br i1 %18, label %19, label %21

19:                                               ; preds = %14
  %20 = load i32, ptr %7, align 4
  store i32 %20, ptr %3, align 4
  br label %85

21:                                               ; preds = %14
  br label %22

22:                                               ; preds = %21
  br label %23

23:                                               ; preds = %22
  %24 = load ptr, ptr %4, align 8
  %25 = call i32 @avifRWStreamWriteFullBox(ptr noundef %24, ptr noundef @.str.70, i64 noundef 0, i32 noundef 0, i32 noundef 0, ptr noundef %8)
  store i32 %25, ptr %9, align 4
  %26 = load i32, ptr %9, align 4
  %27 = icmp ne i32 %26, 0
  br i1 %27, label %28, label %30

28:                                               ; preds = %23
  %29 = load i32, ptr %9, align 4
  store i32 %29, ptr %3, align 4
  br label %85

30:                                               ; preds = %23
  br label %31

31:                                               ; preds = %30
  br label %32

32:                                               ; preds = %31
  %33 = load ptr, ptr %4, align 8
  %34 = call i32 @avifRWStreamWriteU32(ptr noundef %33, i32 noundef 1)
  store i32 %34, ptr %10, align 4
  %35 = load i32, ptr %10, align 4
  %36 = icmp ne i32 %35, 0
  br i1 %36, label %37, label %39

37:                                               ; preds = %32
  %38 = load i32, ptr %10, align 4
  store i32 %38, ptr %3, align 4
  br label %85

39:                                               ; preds = %32
  br label %40

40:                                               ; preds = %39
  br label %41

41:                                               ; preds = %40
  %42 = load ptr, ptr %4, align 8
  %43 = load ptr, ptr %5, align 8
  %44 = getelementptr inbounds nuw %struct.avifEncoderItemIdArray, ptr %43, i32 0, i32 2
  %45 = load i32, ptr %44, align 4
  %46 = call i32 @avifRWStreamWriteU32(ptr noundef %42, i32 noundef %45)
  store i32 %46, ptr %11, align 4
  %47 = load i32, ptr %11, align 4
  %48 = icmp ne i32 %47, 0
  br i1 %48, label %49, label %51

49:                                               ; preds = %41
  %50 = load i32, ptr %11, align 4
  store i32 %50, ptr %3, align 4
  br label %85

51:                                               ; preds = %41
  br label %52

52:                                               ; preds = %51
  store i32 0, ptr %12, align 4
  br label %53

53:                                               ; preds = %77, %52
  %54 = load i32, ptr %12, align 4
  %55 = load ptr, ptr %5, align 8
  %56 = getelementptr inbounds nuw %struct.avifEncoderItemIdArray, ptr %55, i32 0, i32 2
  %57 = load i32, ptr %56, align 4
  %58 = icmp ult i32 %54, %57
  br i1 %58, label %59, label %80

59:                                               ; preds = %53
  br label %60

60:                                               ; preds = %59
  %61 = load ptr, ptr %4, align 8
  %62 = load ptr, ptr %5, align 8
  %63 = getelementptr inbounds nuw %struct.avifEncoderItemIdArray, ptr %62, i32 0, i32 0
  %64 = load ptr, ptr %63, align 8
  %65 = load i32, ptr %12, align 4
  %66 = zext i32 %65 to i64
  %67 = getelementptr inbounds i16, ptr %64, i64 %66
  %68 = load i16, ptr %67, align 2
  %69 = zext i16 %68 to i32
  %70 = call i32 @avifRWStreamWriteU32(ptr noundef %61, i32 noundef %69)
  store i32 %70, ptr %13, align 4
  %71 = load i32, ptr %13, align 4
  %72 = icmp ne i32 %71, 0
  br i1 %72, label %73, label %75

73:                                               ; preds = %60
  %74 = load i32, ptr %13, align 4
  store i32 %74, ptr %3, align 4
  br label %85

75:                                               ; preds = %60
  br label %76

76:                                               ; preds = %75
  br label %77

77:                                               ; preds = %76
  %78 = load i32, ptr %12, align 4
  %79 = add i32 %78, 1
  store i32 %79, ptr %12, align 4
  br label %53, !llvm.loop !35

80:                                               ; preds = %53
  %81 = load ptr, ptr %4, align 8
  %82 = load i64, ptr %8, align 8
  call void @avifRWStreamFinishBox(ptr noundef %81, i64 noundef %82)
  %83 = load ptr, ptr %4, align 8
  %84 = load i64, ptr %6, align 8
  call void @avifRWStreamFinishBox(ptr noundef %83, i64 noundef %84)
  store i32 0, ptr %3, align 4
  br label %85

85:                                               ; preds = %80, %73, %49, %37, %28, %19
  %86 = load i32, ptr %3, align 4
  ret i32 %86
}