; Function Attrs: nounwind uwtable
define internal fastcc i32 @avifWriteAltrGroup(ptr noundef %0, ptr nocapture noundef readonly %1) unnamed_addr #1 {
  %3 = alloca i64, align 8
  %4 = alloca i64, align 8
  %5 = call i32 @avifRWStreamWriteBox(ptr noundef %0, ptr noundef nonnull @.str.69, i64 noundef 0, ptr noundef nonnull %3) #13
  %.not = icmp eq i32 %5, 0
  br i1 %.not, label %6, label %.loopexit

6:                                                ; preds = %2
  %7 = call i32 @avifRWStreamWriteFullBox(ptr noundef %0, ptr noundef nonnull @.str.70, i64 noundef 0, i32 noundef 0, i32 noundef 0, ptr noundef nonnull %4) #13
  %.not29 = icmp eq i32 %7, 0
  br i1 %.not29, label %8, label %.loopexit

8:                                                ; preds = %6
  %9 = call i32 @avifRWStreamWriteU32(ptr noundef %0, i32 noundef 1) #13
  %.not30 = icmp eq i32 %9, 0
  br i1 %.not30, label %10, label %.loopexit

10:                                               ; preds = %8
  %11 = getelementptr inbounds nuw i8, ptr %1, i64 12
  %12 = load i32, ptr %11, align 4
  %13 = call i32 @avifRWStreamWriteU32(ptr noundef %0, i32 noundef %12) #13
  %.not31 = icmp eq i32 %13, 0
  br i1 %.not31, label %.preheader, label %.loopexit

.preheader:                                       ; preds = %10
  %14 = load i32, ptr %11, align 4
  %.not34 = icmp eq i32 %14, 0
  br i1 %.not34, label %._crit_edge, label %.lr.ph

15:                                               ; preds = %.lr.ph
  %indvars.iv.next = add nuw nsw i64 %indvars.iv, 1
  %16 = load i32, ptr %11, align 4
  %17 = zext i32 %16 to i64
  %18 = icmp ult i64 %indvars.iv.next, %17
  br i1 %18, label %.lr.ph, label %._crit_edge, !llvm.loop !35

.lr.ph:                                           ; preds = %.preheader, %15
  %indvars.iv = phi i64 [ %indvars.iv.next, %15 ], [ 0, %.preheader ]
  %19 = load ptr, ptr %1, align 8
  %20 = getelementptr inbounds i16, ptr %19, i64 %indvars.iv
  %21 = load i16, ptr %20, align 2
  %22 = zext i16 %21 to i32
  %23 = call i32 @avifRWStreamWriteU32(ptr noundef %0, i32 noundef %22) #13
  %.not32 = icmp eq i32 %23, 0
  br i1 %.not32, label %15, label %.loopexit

._crit_edge:                                      ; preds = %15, %.preheader
  %24 = load i64, ptr %4, align 8
  call void @avifRWStreamFinishBox(ptr noundef %0, i64 noundef %24) #13
  %25 = load i64, ptr %3, align 8
  call void @avifRWStreamFinishBox(ptr noundef %0, i64 noundef %25) #13
  br label %.loopexit

.loopexit:                                        ; preds = %.lr.ph, %10, %8, %6, %2, %._crit_edge
  %.0 = phi i32 [ 0, %._crit_edge ], [ %5, %2 ], [ %7, %6 ], [ %9, %8 ], [ %13, %10 ], [ %23, %.lr.ph ]
  ret i32 %.0
}